---
triple:          'arm64-apple-darwin'
binary-path:     '/Users/andrewmaner/Desktop/cpp-workdir/file_io/DynamicFileRectangle/main'
relocations:
  - { offsetInCU: 0x26, offset: 0x26, size: 0x8, addend: 0x0, symName: __ZN9RectangleC2Edd, symObjAddr: 0x0, symBinAddr: 0x100004330, symSize: 0x2C }
  - { offsetInCU: 0x2D4C, offset: 0x2D4C, size: 0x8, addend: 0x0, symName: __ZN9RectangleC2Edd, symObjAddr: 0x0, symBinAddr: 0x100004330, symSize: 0x2C }
  - { offsetInCU: 0x2D92, offset: 0x2D92, size: 0x8, addend: 0x0, symName: __ZN9RectangleC1Edd, symObjAddr: 0x2C, symBinAddr: 0x10000435C, symSize: 0x3C }
  - { offsetInCU: 0x2DD8, offset: 0x2DD8, size: 0x8, addend: 0x0, symName: __ZN9Rectangle4areaEv, symObjAddr: 0x68, symBinAddr: 0x100004398, symSize: 0x20 }
  - { offsetInCU: 0x2DFE, offset: 0x2DFE, size: 0x8, addend: 0x0, symName: __ZN9Rectangle9perimeterEv, symObjAddr: 0x88, symBinAddr: 0x1000043B8, symSize: 0x28 }
  - { offsetInCU: 0xBD0F, offset: 0xEB38, size: 0x8, addend: 0x0, symName: __ZNSt3__124__put_character_sequenceB7v160006IcNS_11char_traitsIcEEEERNS_13basic_ostreamIT_T0_EES7_PKS4_m, symObjAddr: 0x29F0, symBinAddr: 0x100006DD0, symSize: 0x1EC }
  - { offsetInCU: 0xE7A3, offset: 0x115CC, size: 0x8, addend: 0x0, symName: __ZNSt3__1neB7v160006IPP9RectangleEEbRKNS_11__wrap_iterIT_EES8_, symObjAddr: 0x5E8, symBinAddr: 0x1000049C8, symSize: 0x34 }
  - { offsetInCU: 0xE7E6, offset: 0x1160F, size: 0x8, addend: 0x0, symName: __ZNSt3__1lsB7v160006INS_11char_traitsIcEEEERNS_13basic_ostreamIcT_EES6_PKc, symObjAddr: 0x634, symBinAddr: 0x100004A14, symSize: 0x48 }
  - { offsetInCU: 0xE82C, offset: 0x11655, size: 0x8, addend: 0x0, symName: __ZNSt3__14endlB7v160006IcNS_11char_traitsIcEEEERNS_13basic_ostreamIT_T0_EES7_, symObjAddr: 0x6A8, symBinAddr: 0x100004A88, symSize: 0x58 }
  - { offsetInCU: 0xE882, offset: 0x116AB, size: 0x8, addend: 0x0, symName: __ZNSt3__1eqB7v160006IPP9RectangleEEbRKNS_11__wrap_iterIT_EES8_, symObjAddr: 0x87C, symBinAddr: 0x100004C5C, symSize: 0x48 }
  - { offsetInCU: 0xE8C5, offset: 0x116EE, size: 0x8, addend: 0x0, symName: __ZNSt3__119__debug_db_insert_cB7v160006INS_6vectorIP9RectangleNS_9allocatorIS3_EEEEEEvPT_, symObjAddr: 0xA94, symBinAddr: 0x100004E74, symSize: 0x10 }
  - { offsetInCU: 0xE8F6, offset: 0x1171F, size: 0x8, addend: 0x0, symName: __ZNSt3__118__debug_db_erase_cB7v160006INS_6vectorIP9RectangleNS_9allocatorIS3_EEEEEEvPT_, symObjAddr: 0xD58, symBinAddr: 0x100005138, symSize: 0x10 }
  - { offsetInCU: 0xE927, offset: 0x11750, size: 0x8, addend: 0x0, symName: __ZNSt3__112__to_addressB7v160006IP9RectangleEEPT_S4_, symObjAddr: 0xE9C, symBinAddr: 0x10000527C, symSize: 0x14 }
  - { offsetInCU: 0xE95C, offset: 0x11785, size: 0x8, addend: 0x0, symName: __ZNSt3__119__libcpp_deallocateB7v160006EPvmm, symObjAddr: 0xFBC, symBinAddr: 0x10000539C, symSize: 0x60 }
  - { offsetInCU: 0xE9C1, offset: 0x117EA, size: 0x8, addend: 0x0, symName: __ZNSt3__124__is_overaligned_for_newB7v160006Em, symObjAddr: 0x101C, symBinAddr: 0x1000053FC, symSize: 0x20 }
  - { offsetInCU: 0xE9EF, offset: 0x11818, size: 0x8, addend: 0x0, symName: __ZNSt3__127__do_deallocate_handle_sizeB7v160006IJSt11align_val_tEEEvPvmDpT_, symObjAddr: 0x103C, symBinAddr: 0x10000541C, symSize: 0x30 }
  - { offsetInCU: 0xEA42, offset: 0x1186B, size: 0x8, addend: 0x0, symName: __ZNSt3__127__do_deallocate_handle_sizeB7v160006IJEEEvPvmDpT_, symObjAddr: 0x106C, symBinAddr: 0x10000544C, symSize: 0x28 }
  - { offsetInCU: 0xEA81, offset: 0x118AA, size: 0x8, addend: 0x0, symName: __ZNSt3__124__libcpp_operator_deleteB7v160006IJPvSt11align_val_tEEEvDpT_, symObjAddr: 0x1094, symBinAddr: 0x100005474, symSize: 0x2C }
  - { offsetInCU: 0xEACA, offset: 0x118F3, size: 0x8, addend: 0x0, symName: __ZNSt3__124__libcpp_operator_deleteB7v160006IJPvEEEvDpT_, symObjAddr: 0x10C0, symBinAddr: 0x1000054A0, symSize: 0x24 }
  - { offsetInCU: 0xEAFF, offset: 0x11928, size: 0x8, addend: 0x0, symName: __ZNSt3__13maxB7v160006ImEERKT_S3_S3_, symObjAddr: 0x18C0, symBinAddr: 0x100005CA0, symSize: 0x2C }
  - { offsetInCU: 0xEB42, offset: 0x1196B, size: 0x8, addend: 0x0, symName: __ZNSt3__13minB7v160006ImEERKT_S3_S3_, symObjAddr: 0x18EC, symBinAddr: 0x100005CCC, symSize: 0x2C }
  - { offsetInCU: 0xED6F, offset: 0x11B98, size: 0x8, addend: 0x0, symName: __ZNSt3__13minB7v160006ImNS_6__lessImmEEEERKT_S5_S5_T0_, symObjAddr: 0x1978, symBinAddr: 0x100005D58, symSize: 0x54 }
  - { offsetInCU: 0xEE04, offset: 0x11C2D, size: 0x8, addend: 0x0, symName: __ZNSt3__120__throw_length_errorB7v160006EPKc, symObjAddr: 0x1A54, symBinAddr: 0x100005E34, symSize: 0x64 }
  - { offsetInCU: 0xEE2D, offset: 0x11C56, size: 0x8, addend: 0x0, symName: __ZNSt3__13maxB7v160006ImNS_6__lessImmEEEERKT_S5_S5_T0_, symObjAddr: 0x1B38, symBinAddr: 0x100005F18, symSize: 0x54 }
  - { offsetInCU: 0xEE87, offset: 0x11CB0, size: 0x8, addend: 0x0, symName: __ZNSt3__119__allocate_at_leastB7v160006INS_9allocatorIP9RectangleEEEENS_19__allocation_resultINS_16allocator_traitsIT_E7pointerEEERS7_m, symObjAddr: 0x1C9C, symBinAddr: 0x10000607C, symSize: 0x40 }
  - { offsetInCU: 0xEECA, offset: 0x11CF3, size: 0x8, addend: 0x0, symName: __ZNSt3__117__libcpp_allocateB7v160006Emm, symObjAddr: 0x1E20, symBinAddr: 0x100006200, symSize: 0x60 }
  - { offsetInCU: 0xEF24, offset: 0x11D4D, size: 0x8, addend: 0x0, symName: __ZNSt3__121__libcpp_operator_newB7v160006IJmSt11align_val_tEEEPvDpT_, symObjAddr: 0x1E80, symBinAddr: 0x100006260, symSize: 0x2C }
  - { offsetInCU: 0xEF71, offset: 0x11D9A, size: 0x8, addend: 0x0, symName: __ZNSt3__121__libcpp_operator_newB7v160006IJmEEEPvDpT_, symObjAddr: 0x1EAC, symBinAddr: 0x10000628C, symSize: 0x24 }
  - { offsetInCU: 0xEFAA, offset: 0x11DD3, size: 0x8, addend: 0x0, symName: __ZNSt3__142__uninitialized_allocator_move_if_noexceptB7v160006INS_9allocatorIP9RectangleEENS_16reverse_iteratorIPS3_EES7_S3_vEET1_RT_T0_SB_S8_, symObjAddr: 0x1F34, symBinAddr: 0x100006314, symSize: 0x78 }
  - { offsetInCU: 0xF028, offset: 0x11E51, size: 0x8, addend: 0x0, symName: __ZNSt3__14swapB7v160006IPP9RectangleEENS_9enable_ifIXaasr21is_move_constructibleIT_EE5valuesr18is_move_assignableIS5_EE5valueEvE4typeERS5_S8_, symObjAddr: 0x1FF8, symBinAddr: 0x1000063D8, symSize: 0x3C }
  - { offsetInCU: 0xF07A, offset: 0x11EA3, size: 0x8, addend: 0x0, symName: __ZNSt3__125__debug_db_invalidate_allB7v160006INS_6vectorIP9RectangleNS_9allocatorIS3_EEEEEEvPT_, symObjAddr: 0x20E0, symBinAddr: 0x1000064C0, symSize: 0x10 }
  - { offsetInCU: 0xF0AB, offset: 0x11ED4, size: 0x8, addend: 0x0, symName: __ZNSt3__14moveB7v160006INS_16reverse_iteratorIPP9RectangleEES5_EET0_T_S7_S6_, symObjAddr: 0x20F0, symBinAddr: 0x1000064D0, symSize: 0x78 }
  - { offsetInCU: 0xF105, offset: 0x11F2E, size: 0x8, addend: 0x0, symName: __ZNSt3__16__moveB7v160006INS_17_ClassicAlgPolicyENS_16reverse_iteratorIPP9RectangleEES6_S6_EENS_4pairIT0_T2_EES8_T1_S9_, symObjAddr: 0x2168, symBinAddr: 0x100006548, symSize: 0x64 }
  - { offsetInCU: 0xF171, offset: 0x11F9A, size: 0x8, addend: 0x0, symName: __ZNSt3__123__dispatch_copy_or_moveB7v160006INS_17_ClassicAlgPolicyENS_11__move_loopIS1_EENS_14__move_trivialENS_16reverse_iteratorIPP9RectangleEES9_S9_EENS_4pairIT2_T4_EESB_T3_SC_, symObjAddr: 0x21CC, symBinAddr: 0x1000065AC, symSize: 0x64 }
  - { offsetInCU: 0xF1EF, offset: 0x12018, size: 0x8, addend: 0x0, symName: __ZNSt3__121__unwrap_and_dispatchB7v160006INS_10__overloadINS_11__move_loopINS_17_ClassicAlgPolicyEEENS_14__move_trivialEEENS_16reverse_iteratorIPP9RectangleEESB_SB_Li0EEENS_4pairIT0_T2_EESD_T1_SE_, symObjAddr: 0x2230, symBinAddr: 0x100006610, symSize: 0x12C }
  - { offsetInCU: 0xF282, offset: 0x120AB, size: 0x8, addend: 0x0, symName: __ZNSt3__114__unwrap_rangeB7v160006INS_16reverse_iteratorIPP9RectangleEES5_EENS_4pairIT0_S7_EET_S9_, symObjAddr: 0x235C, symBinAddr: 0x10000673C, symSize: 0x84 }
  - { offsetInCU: 0xF3FE, offset: 0x12227, size: 0x8, addend: 0x0, symName: __ZNSt3__113__unwrap_iterB7v160006INS_16reverse_iteratorIPP9RectangleEENS_18__unwrap_iter_implIS5_Lb0EEELi0EEEDTclsrT0_8__unwrapclsr3stdE7declvalIT_EEEES9_, symObjAddr: 0x2480, symBinAddr: 0x100006860, symSize: 0x44 }
  - { offsetInCU: 0xF443, offset: 0x1226C, size: 0x8, addend: 0x0, symName: __ZNSt3__19make_pairB7v160006INS_16reverse_iteratorIPP9RectangleEES5_EENS_4pairINS_18__unwrap_ref_decayIT_E4typeENS7_IT0_E4typeEEEOS8_OSB_, symObjAddr: 0x24C4, symBinAddr: 0x1000068A4, symSize: 0x38 }
  - { offsetInCU: 0xF492, offset: 0x122BB, size: 0x8, addend: 0x0, symName: __ZNSt3__114__rewrap_rangeB7v160006INS_16reverse_iteratorIPP9RectangleEES5_EET_S6_T0_, symObjAddr: 0x24FC, symBinAddr: 0x1000068DC, symSize: 0x5C }
  - { offsetInCU: 0xF4DE, offset: 0x12307, size: 0x8, addend: 0x0, symName: __ZNSt3__113__rewrap_iterB7v160006INS_16reverse_iteratorIPP9RectangleEES5_NS_18__unwrap_iter_implIS5_Lb0EEEEET_S8_T0_, symObjAddr: 0x2558, symBinAddr: 0x100006938, symSize: 0x74 }
  - { offsetInCU: 0xF533, offset: 0x1235C, size: 0x8, addend: 0x0, symName: __ZNSt3__1neB7v160006IPP9RectangleS3_EEbRKNS_16reverse_iteratorIT_EERKNS4_IT0_EE, symObjAddr: 0x25CC, symBinAddr: 0x1000069AC, symSize: 0x48 }
  - { offsetInCU: 0xF632, offset: 0x1245B, size: 0x8, addend: 0x0, symName: __ZNSt3__116__pad_and_outputB7v160006IcNS_11char_traitsIcEEEENS_19ostreambuf_iteratorIT_T0_EES6_PKS4_S8_S8_RNS_8ios_baseES4_, symObjAddr: 0x2C2C, symBinAddr: 0x10000700C, symSize: 0x240 }
  - { offsetInCU: 0xF701, offset: 0x1252A, size: 0x8, addend: 0x0, symName: __ZNSt3__119__debug_db_insert_cB7v160006INS_12basic_stringIcNS_11char_traitsIcEENS_9allocatorIcEEEEEEvPT_, symObjAddr: 0x30E0, symBinAddr: 0x1000074C0, symSize: 0x10 }
  - { offsetInCU: 0xF732, offset: 0x1255B, size: 0x8, addend: 0x0, symName: __ZNSt3__112__to_addressB7v160006IcEEPT_S2_, symObjAddr: 0x31AC, symBinAddr: 0x10000758C, symSize: 0x14 }
  - { offsetInCU: 0xF79A, offset: 0x125C3, size: 0x8, addend: 0x0, symName: __ZNSt3__19use_facetB7v160006INS_5ctypeIcEEEERKT_RKNS_6localeE, symObjAddr: 0x345C, symBinAddr: 0x10000783C, symSize: 0x2C }
  - { offsetInCU: 0xFC69, offset: 0x12A92, size: 0x8, addend: 0x0, symName: __ZNSt3__118__constexpr_strlenB7v160006EPKc, symObjAddr: 0x34F4, symBinAddr: 0x1000078D4, symSize: 0x24 }
  - { offsetInCU: 0x10108, offset: 0x12F31, size: 0x8, addend: 0x0, symName: __ZSt28__throw_bad_array_new_lengthB7v160006v, symObjAddr: 0x1DEC, symBinAddr: 0x1000061CC, symSize: 0x34 }
  - { offsetInCU: 0x10A89, offset: 0x138B2, size: 0x8, addend: 0x0, symName: __ZNSt3__16vectorIP9RectangleNS_9allocatorIS2_EEE26__swap_out_circular_bufferERNS_14__split_bufferIS2_RS4_EE, symObjAddr: 0x1700, symBinAddr: 0x100005AE0, symSize: 0x118 }
  - { offsetInCU: 0x12932, offset: 0x1575B, size: 0x8, addend: 0x0, symName: _main, symObjAddr: 0x0, symBinAddr: 0x1000043E0, symSize: 0x2F8 }
  - { offsetInCU: 0x129F3, offset: 0x1581C, size: 0x8, addend: 0x0, symName: __ZNSt3__16vectorIP9RectangleNS_9allocatorIS2_EEEC1B7v160006Ev, symObjAddr: 0x2F8, symBinAddr: 0x1000046D8, symSize: 0x2C }
  - { offsetInCU: 0x12B57, offset: 0x15980, size: 0x8, addend: 0x0, symName: __ZNSt3__114basic_ifstreamIcNS_11char_traitsIcEEEC1Ev, symObjAddr: 0x324, symBinAddr: 0x100004704, symSize: 0xE8 }
  - { offsetInCU: 0x12B9D, offset: 0x159C6, size: 0x8, addend: 0x0, symName: __ZNSt3__114basic_ofstreamIcNS_11char_traitsIcEEEC1Ev, symObjAddr: 0x40C, symBinAddr: 0x1000047EC, symSize: 0xE8 }
  - { offsetInCU: 0x12BC8, offset: 0x159F1, size: 0x8, addend: 0x0, symName: __ZNKSt3__19basic_iosIcNS_11char_traitsIcEEE3eofB7v160006Ev, symObjAddr: 0x4F4, symBinAddr: 0x1000048D4, symSize: 0x28 }
  - { offsetInCU: 0x12BED, offset: 0x15A16, size: 0x8, addend: 0x0, symName: __ZNSt3__16vectorIP9RectangleNS_9allocatorIS2_EEE9push_backB7v160006EOS2_, symObjAddr: 0x51C, symBinAddr: 0x1000048FC, symSize: 0x6C }
  - { offsetInCU: 0x12C23, offset: 0x15A4C, size: 0x8, addend: 0x0, symName: __ZNSt3__16vectorIP9RectangleNS_9allocatorIS2_EEE5beginB7v160006Ev, symObjAddr: 0x588, symBinAddr: 0x100004968, symSize: 0x30 }
  - { offsetInCU: 0x12C4A, offset: 0x15A73, size: 0x8, addend: 0x0, symName: __ZNSt3__16vectorIP9RectangleNS_9allocatorIS2_EEE3endB7v160006Ev, symObjAddr: 0x5B8, symBinAddr: 0x100004998, symSize: 0x30 }
  - { offsetInCU: 0x12C71, offset: 0x15A9A, size: 0x8, addend: 0x0, symName: __ZNKSt3__111__wrap_iterIPP9RectangleEdeB7v160006Ev, symObjAddr: 0x61C, symBinAddr: 0x1000049FC, symSize: 0x18 }
  - { offsetInCU: 0x12C96, offset: 0x15ABF, size: 0x8, addend: 0x0, symName: __ZNSt3__113basic_ostreamIcNS_11char_traitsIcEEElsB7v160006EPFRS3_S4_E, symObjAddr: 0x67C, symBinAddr: 0x100004A5C, symSize: 0x2C }
  - { offsetInCU: 0x12CC9, offset: 0x15AF2, size: 0x8, addend: 0x0, symName: __ZNSt3__111__wrap_iterIPP9RectangleEppB7v160006Ev, symObjAddr: 0x700, symBinAddr: 0x100004AE0, symSize: 0x20 }
  - { offsetInCU: 0x12CEE, offset: 0x15B17, size: 0x8, addend: 0x0, symName: __ZNSt3__114basic_ifstreamIcNS_11char_traitsIcEEE5closeEv, symObjAddr: 0x720, symBinAddr: 0x100004B00, symSize: 0x58 }
  - { offsetInCU: 0x12D15, offset: 0x15B3E, size: 0x8, addend: 0x0, symName: __ZNSt3__114basic_ofstreamIcNS_11char_traitsIcEEE5closeEv, symObjAddr: 0x778, symBinAddr: 0x100004B58, symSize: 0x58 }
  - { offsetInCU: 0x12D41, offset: 0x15B6A, size: 0x8, addend: 0x0, symName: __ZNSt3__114basic_ofstreamIcNS_11char_traitsIcEEED1Ev, symObjAddr: 0x7D0, symBinAddr: 0x100004BB0, symSize: 0x40 }
  - { offsetInCU: 0x12D72, offset: 0x15B9B, size: 0x8, addend: 0x0, symName: __ZNSt3__114basic_ifstreamIcNS_11char_traitsIcEEED1Ev, symObjAddr: 0x810, symBinAddr: 0x100004BF0, symSize: 0x40 }
  - { offsetInCU: 0x12D9E, offset: 0x15BC7, size: 0x8, addend: 0x0, symName: __ZNSt3__16vectorIP9RectangleNS_9allocatorIS2_EEED1B7v160006Ev, symObjAddr: 0x850, symBinAddr: 0x100004C30, symSize: 0x2C }
  - { offsetInCU: 0x12DC7, offset: 0x15BF0, size: 0x8, addend: 0x0, symName: __ZNKSt3__111__wrap_iterIPP9RectangleE4baseB7v160006Ev, symObjAddr: 0x8C4, symBinAddr: 0x100004CA4, symSize: 0x18 }
  - { offsetInCU: 0x12DEC, offset: 0x15C15, size: 0x8, addend: 0x0, symName: __ZNSt3__114basic_ofstreamIcNS_11char_traitsIcEEED2Ev, symObjAddr: 0x8DC, symBinAddr: 0x100004CBC, symSize: 0x64 }
  - { offsetInCU: 0x12E24, offset: 0x15C4D, size: 0x8, addend: 0x0, symName: __ZTv0_n24_NSt3__114basic_ofstreamIcNS_11char_traitsIcEEED1Ev, symObjAddr: 0x940, symBinAddr: 0x100004D20, symSize: 0x28 }
  - { offsetInCU: 0x12E3B, offset: 0x15C64, size: 0x8, addend: 0x0, symName: __ZNSt3__114basic_ifstreamIcNS_11char_traitsIcEEED2Ev, symObjAddr: 0x968, symBinAddr: 0x100004D48, symSize: 0x64 }
  - { offsetInCU: 0x12E73, offset: 0x15C9C, size: 0x8, addend: 0x0, symName: __ZTv0_n24_NSt3__114basic_ifstreamIcNS_11char_traitsIcEEED1Ev, symObjAddr: 0x9CC, symBinAddr: 0x100004DAC, symSize: 0x28 }
  - { offsetInCU: 0x12E8A, offset: 0x15CB3, size: 0x8, addend: 0x0, symName: __ZNSt3__16vectorIP9RectangleNS_9allocatorIS2_EEEC2B7v160006Ev, symObjAddr: 0x9F4, symBinAddr: 0x100004DD4, symSize: 0x58 }
  - { offsetInCU: 0x12EBF, offset: 0x15CE8, size: 0x8, addend: 0x0, symName: __ZNSt3__117__compressed_pairIPP9RectangleNS_9allocatorIS2_EEEC1B7v160006IDnNS_18__default_init_tagEEEOT_OT0_, symObjAddr: 0xA4C, symBinAddr: 0x100004E2C, symSize: 0x3C }
  - { offsetInCU: 0x12F16, offset: 0x15D3F, size: 0x8, addend: 0x0, symName: __ZNSt3__117__compressed_pairIPP9RectangleNS_9allocatorIS2_EEEC2B7v160006IDnNS_18__default_init_tagEEEOT_OT0_, symObjAddr: 0xAA4, symBinAddr: 0x100004E84, symSize: 0x40 }
  - { offsetInCU: 0x12F6D, offset: 0x15D96, size: 0x8, addend: 0x0, symName: __ZNSt3__122__compressed_pair_elemIPP9RectangleLi0ELb0EEC2B7v160006IDnvEEOT_, symObjAddr: 0xAE4, symBinAddr: 0x100004EC4, symSize: 0x1C }
  - { offsetInCU: 0x12FAE, offset: 0x15DD7, size: 0x8, addend: 0x0, symName: __ZNSt3__122__compressed_pair_elemINS_9allocatorIP9RectangleEELi1ELb1EEC2B7v160006ENS_18__default_init_tagE, symObjAddr: 0xB00, symBinAddr: 0x100004EE0, symSize: 0x2C }
  - { offsetInCU: 0x12FE2, offset: 0x15E0B, size: 0x8, addend: 0x0, symName: __ZNSt3__19allocatorIP9RectangleEC2B7v160006Ev, symObjAddr: 0xB2C, symBinAddr: 0x100004F0C, symSize: 0x2C }
  - { offsetInCU: 0x1300B, offset: 0x15E34, size: 0x8, addend: 0x0, symName: __ZNSt3__116__non_trivial_ifILb1ENS_9allocatorIP9RectangleEEEC2B7v160006Ev, symObjAddr: 0xB58, symBinAddr: 0x100004F38, symSize: 0x14 }
  - { offsetInCU: 0x13034, offset: 0x15E5D, size: 0x8, addend: 0x0, symName: __ZNSt3__16vectorIP9RectangleNS_9allocatorIS2_EEED2B7v160006Ev, symObjAddr: 0xB6C, symBinAddr: 0x100004F4C, symSize: 0x44 }
  - { offsetInCU: 0x1305D, offset: 0x15E86, size: 0x8, addend: 0x0, symName: __ZNSt3__16vectorIP9RectangleNS_9allocatorIS2_EEE16__destroy_vectorC1ERS5_, symObjAddr: 0xBB0, symBinAddr: 0x100004F90, symSize: 0x34 }
  - { offsetInCU: 0x13095, offset: 0x15EBE, size: 0x8, addend: 0x0, symName: __ZNSt3__16vectorIP9RectangleNS_9allocatorIS2_EEE16__destroy_vectorclB7v160006Ev, symObjAddr: 0xBE4, symBinAddr: 0x100004FC4, symSize: 0x9C }
  - { offsetInCU: 0x130BA, offset: 0x15EE3, size: 0x8, addend: 0x0, symName: __ZNSt3__16vectorIP9RectangleNS_9allocatorIS2_EEE16__destroy_vectorC2ERS5_, symObjAddr: 0xC80, symBinAddr: 0x100005060, symSize: 0x20 }
  - { offsetInCU: 0x130F2, offset: 0x15F1B, size: 0x8, addend: 0x0, symName: __ZNKSt3__16vectorIP9RectangleNS_9allocatorIS2_EEE17__annotate_deleteB7v160006Ev, symObjAddr: 0xCA0, symBinAddr: 0x100005080, symSize: 0xB8 }
  - { offsetInCU: 0x13117, offset: 0x15F40, size: 0x8, addend: 0x0, symName: __ZNSt3__16vectorIP9RectangleNS_9allocatorIS2_EEE7__clearB7v160006Ev, symObjAddr: 0xD68, symBinAddr: 0x100005148, symSize: 0x28 }
  - { offsetInCU: 0x1313C, offset: 0x15F65, size: 0x8, addend: 0x0, symName: __ZNSt3__116allocator_traitsINS_9allocatorIP9RectangleEEE10deallocateB7v160006ERS4_PS3_m, symObjAddr: 0xD90, symBinAddr: 0x100005170, symSize: 0x34 }
  - { offsetInCU: 0x1317E, offset: 0x15FA7, size: 0x8, addend: 0x0, symName: __ZNSt3__16vectorIP9RectangleNS_9allocatorIS2_EEE7__allocB7v160006Ev, symObjAddr: 0xDC4, symBinAddr: 0x1000051A4, symSize: 0x28 }
  - { offsetInCU: 0x131A3, offset: 0x15FCC, size: 0x8, addend: 0x0, symName: __ZNKSt3__16vectorIP9RectangleNS_9allocatorIS2_EEE8capacityB7v160006Ev, symObjAddr: 0xDEC, symBinAddr: 0x1000051CC, symSize: 0x40 }
  - { offsetInCU: 0x131C8, offset: 0x15FF1, size: 0x8, addend: 0x0, symName: __ZNKSt3__16vectorIP9RectangleNS_9allocatorIS2_EEE31__annotate_contiguous_containerB7v160006EPKvS7_S7_S7_, symObjAddr: 0xE2C, symBinAddr: 0x10000520C, symSize: 0x20 }
  - { offsetInCU: 0x1321D, offset: 0x16046, size: 0x8, addend: 0x0, symName: __ZNKSt3__16vectorIP9RectangleNS_9allocatorIS2_EEE4dataB7v160006Ev, symObjAddr: 0xE4C, symBinAddr: 0x10000522C, symSize: 0x28 }
  - { offsetInCU: 0x13242, offset: 0x1606B, size: 0x8, addend: 0x0, symName: __ZNKSt3__16vectorIP9RectangleNS_9allocatorIS2_EEE4sizeB7v160006Ev, symObjAddr: 0xE74, symBinAddr: 0x100005254, symSize: 0x28 }
  - { offsetInCU: 0x13267, offset: 0x16090, size: 0x8, addend: 0x0, symName: __ZNSt3__16vectorIP9RectangleNS_9allocatorIS2_EEE22__base_destruct_at_endB7v160006EPS2_, symObjAddr: 0xEB0, symBinAddr: 0x100005290, symSize: 0x8C }
  - { offsetInCU: 0x132AA, offset: 0x160D3, size: 0x8, addend: 0x0, symName: __ZNSt3__116allocator_traitsINS_9allocatorIP9RectangleEEE7destroyB7v160006IS3_vEEvRS4_PT_, symObjAddr: 0xF3C, symBinAddr: 0x10000531C, symSize: 0x2C }
  - { offsetInCU: 0x132E7, offset: 0x16110, size: 0x8, addend: 0x0, symName: __ZNSt3__19allocatorIP9RectangleE7destroyB7v160006EPS2_, symObjAddr: 0xF68, symBinAddr: 0x100005348, symSize: 0x14 }
  - { offsetInCU: 0x1331A, offset: 0x16143, size: 0x8, addend: 0x0, symName: __ZNSt3__19allocatorIP9RectangleE10deallocateB7v160006EPS2_m, symObjAddr: 0xF7C, symBinAddr: 0x10000535C, symSize: 0x40 }
  - { offsetInCU: 0x1335B, offset: 0x16184, size: 0x8, addend: 0x0, symName: __ZNSt3__117__compressed_pairIPP9RectangleNS_9allocatorIS2_EEE6secondB7v160006Ev, symObjAddr: 0x10E4, symBinAddr: 0x1000054C4, symSize: 0x24 }
  - { offsetInCU: 0x13380, offset: 0x161A9, size: 0x8, addend: 0x0, symName: __ZNSt3__122__compressed_pair_elemINS_9allocatorIP9RectangleEELi1ELb1EE5__getB7v160006Ev, symObjAddr: 0x1108, symBinAddr: 0x1000054E8, symSize: 0x14 }
  - { offsetInCU: 0x133A5, offset: 0x161CE, size: 0x8, addend: 0x0, symName: __ZNKSt3__16vectorIP9RectangleNS_9allocatorIS2_EEE9__end_capB7v160006Ev, symObjAddr: 0x111C, symBinAddr: 0x1000054FC, symSize: 0x28 }
  - { offsetInCU: 0x133CA, offset: 0x161F3, size: 0x8, addend: 0x0, symName: __ZNKSt3__117__compressed_pairIPP9RectangleNS_9allocatorIS2_EEE5firstB7v160006Ev, symObjAddr: 0x1144, symBinAddr: 0x100005524, symSize: 0x24 }
  - { offsetInCU: 0x133EF, offset: 0x16218, size: 0x8, addend: 0x0, symName: __ZNKSt3__122__compressed_pair_elemIPP9RectangleLi0ELb0EE5__getB7v160006Ev, symObjAddr: 0x1168, symBinAddr: 0x100005548, symSize: 0x14 }
  - { offsetInCU: 0x13414, offset: 0x1623D, size: 0x8, addend: 0x0, symName: __ZNSt3__19basic_iosIcNS_11char_traitsIcEEEC2B7v160006Ev, symObjAddr: 0x117C, symBinAddr: 0x10000555C, symSize: 0x44 }
  - { offsetInCU: 0x1343D, offset: 0x16266, size: 0x8, addend: 0x0, symName: __ZNSt3__113basic_istreamIcNS_11char_traitsIcEEEC2B7v160006EPNS_15basic_streambufIcS2_EE, symObjAddr: 0x11C0, symBinAddr: 0x1000055A0, symSize: 0x64 }
  - { offsetInCU: 0x13480, offset: 0x162A9, size: 0x8, addend: 0x0, symName: __ZNSt3__18ios_baseC2B7v160006Ev, symObjAddr: 0x1224, symBinAddr: 0x100005604, symSize: 0x24 }
  - { offsetInCU: 0x134A9, offset: 0x162D2, size: 0x8, addend: 0x0, symName: __ZNSt3__19basic_iosIcNS_11char_traitsIcEEE4initB7v160006EPNS_15basic_streambufIcS2_EE, symObjAddr: 0x1248, symBinAddr: 0x100005628, symSize: 0x44 }
  - { offsetInCU: 0x134DF, offset: 0x16308, size: 0x8, addend: 0x0, symName: __ZNSt3__111char_traitsIcE3eofEv, symObjAddr: 0x128C, symBinAddr: 0x10000566C, symSize: 0x8 }
  - { offsetInCU: 0x134F3, offset: 0x1631C, size: 0x8, addend: 0x0, symName: __ZNSt3__113basic_ostreamIcNS_11char_traitsIcEEEC2B7v160006EPNS_15basic_streambufIcS2_EE, symObjAddr: 0x1294, symBinAddr: 0x100005674, symSize: 0x60 }
  - { offsetInCU: 0x13536, offset: 0x1635F, size: 0x8, addend: 0x0, symName: __ZNKSt3__18ios_base3eofB7v160006Ev, symObjAddr: 0x12F4, symBinAddr: 0x1000056D4, symSize: 0x24 }
  - { offsetInCU: 0x1355D, offset: 0x16386, size: 0x8, addend: 0x0, symName: __ZNSt3__16vectorIP9RectangleNS_9allocatorIS2_EEE9__end_capB7v160006Ev, symObjAddr: 0x1318, symBinAddr: 0x1000056F8, symSize: 0x28 }
  - { offsetInCU: 0x13588, offset: 0x163B1, size: 0x8, addend: 0x0, symName: __ZNSt3__16vectorIP9RectangleNS_9allocatorIS2_EEE22__construct_one_at_endB7v160006IJS2_EEEvDpOT_, symObjAddr: 0x1340, symBinAddr: 0x100005720, symSize: 0x90 }
  - { offsetInCU: 0x135D6, offset: 0x163FF, size: 0x8, addend: 0x0, symName: __ZNSt3__16vectorIP9RectangleNS_9allocatorIS2_EEE21__push_back_slow_pathIS2_EEvOT_, symObjAddr: 0x13D0, symBinAddr: 0x1000057B0, symSize: 0xD8 }
  - { offsetInCU: 0x13633, offset: 0x1645C, size: 0x8, addend: 0x0, symName: __ZNSt3__117__compressed_pairIPP9RectangleNS_9allocatorIS2_EEE5firstB7v160006Ev, symObjAddr: 0x14A8, symBinAddr: 0x100005888, symSize: 0x24 }
  - { offsetInCU: 0x13658, offset: 0x16481, size: 0x8, addend: 0x0, symName: __ZNSt3__122__compressed_pair_elemIPP9RectangleLi0ELb0EE5__getB7v160006Ev, symObjAddr: 0x14CC, symBinAddr: 0x1000058AC, symSize: 0x14 }
  - { offsetInCU: 0x13698, offset: 0x164C1, size: 0x8, addend: 0x0, symName: __ZNSt3__16vectorIP9RectangleNS_9allocatorIS2_EEE21_ConstructTransactionC1B7v160006ERS5_m, symObjAddr: 0x14E0, symBinAddr: 0x1000058C0, symSize: 0x3C }
  - { offsetInCU: 0x136DF, offset: 0x16508, size: 0x8, addend: 0x0, symName: __ZNSt3__116allocator_traitsINS_9allocatorIP9RectangleEEE9constructB7v160006IS3_JS3_EvEEvRS4_PT_DpOT0_, symObjAddr: 0x151C, symBinAddr: 0x1000058FC, symSize: 0x34 }
  - { offsetInCU: 0x13736, offset: 0x1655F, size: 0x8, addend: 0x0, symName: __ZNSt3__16vectorIP9RectangleNS_9allocatorIS2_EEE21_ConstructTransactionD1B7v160006Ev, symObjAddr: 0x1550, symBinAddr: 0x100005930, symSize: 0x2C }
  - { offsetInCU: 0x1375F, offset: 0x16588, size: 0x8, addend: 0x0, symName: __ZNSt3__16vectorIP9RectangleNS_9allocatorIS2_EEE21_ConstructTransactionC2B7v160006ERS5_m, symObjAddr: 0x157C, symBinAddr: 0x10000595C, symSize: 0x44 }
  - { offsetInCU: 0x137A6, offset: 0x165CF, size: 0x8, addend: 0x0, symName: __ZNSt3__19allocatorIP9RectangleE9constructB7v160006IS2_JS2_EEEvPT_DpOT0_, symObjAddr: 0x15C0, symBinAddr: 0x1000059A0, symSize: 0x28 }
  - { offsetInCU: 0x137FB, offset: 0x16624, size: 0x8, addend: 0x0, symName: __ZNSt3__16vectorIP9RectangleNS_9allocatorIS2_EEE21_ConstructTransactionD2B7v160006Ev, symObjAddr: 0x15E8, symBinAddr: 0x1000059C8, symSize: 0x20 }
  - { offsetInCU: 0x13824, offset: 0x1664D, size: 0x8, addend: 0x0, symName: __ZNKSt3__16vectorIP9RectangleNS_9allocatorIS2_EEE11__recommendB7v160006Em, symObjAddr: 0x1608, symBinAddr: 0x1000059E8, symSize: 0xB4 }
  - { offsetInCU: 0x13878, offset: 0x166A1, size: 0x8, addend: 0x0, symName: __ZNSt3__114__split_bufferIP9RectangleRNS_9allocatorIS2_EEEC1EmmS5_, symObjAddr: 0x16BC, symBinAddr: 0x100005A9C, symSize: 0x44 }
  - { offsetInCU: 0x138CD, offset: 0x166F6, size: 0x8, addend: 0x0, symName: __ZNSt3__114__split_bufferIP9RectangleRNS_9allocatorIS2_EEED1Ev, symObjAddr: 0x1818, symBinAddr: 0x100005BF8, symSize: 0x2C }
  - { offsetInCU: 0x138F8, offset: 0x16721, size: 0x8, addend: 0x0, symName: __ZNKSt3__16vectorIP9RectangleNS_9allocatorIS2_EEE8max_sizeEv, symObjAddr: 0x1844, symBinAddr: 0x100005C24, symSize: 0x60 }
  - { offsetInCU: 0x1391F, offset: 0x16748, size: 0x8, addend: 0x0, symName: __ZNKSt3__16vectorIP9RectangleNS_9allocatorIS2_EEE20__throw_length_errorB7v160006Ev, symObjAddr: 0x18A4, symBinAddr: 0x100005C84, symSize: 0x1C }
  - { offsetInCU: 0x1394F, offset: 0x16778, size: 0x8, addend: 0x0, symName: __ZNSt3__116allocator_traitsINS_9allocatorIP9RectangleEEE8max_sizeB7v160006IS4_vEEmRKS4_, symObjAddr: 0x1918, symBinAddr: 0x100005CF8, symSize: 0x24 }
  - { offsetInCU: 0x1397D, offset: 0x167A6, size: 0x8, addend: 0x0, symName: __ZNKSt3__16vectorIP9RectangleNS_9allocatorIS2_EEE7__allocB7v160006Ev, symObjAddr: 0x193C, symBinAddr: 0x100005D1C, symSize: 0x28 }
  - { offsetInCU: 0x139A2, offset: 0x167CB, size: 0x8, addend: 0x0, symName: __ZNSt3__114numeric_limitsIlE3maxB7v160006Ev, symObjAddr: 0x1964, symBinAddr: 0x100005D44, symSize: 0x14 }
  - { offsetInCU: 0x139CB, offset: 0x167F4, size: 0x8, addend: 0x0, symName: __ZNKSt3__16__lessImmEclB7v160006ERKmS3_, symObjAddr: 0x19CC, symBinAddr: 0x100005DAC, symSize: 0x34 }
  - { offsetInCU: 0x13A0C, offset: 0x16835, size: 0x8, addend: 0x0, symName: __ZNKSt3__19allocatorIP9RectangleE8max_sizeB7v160006Ev, symObjAddr: 0x1A00, symBinAddr: 0x100005DE0, symSize: 0x14 }
  - { offsetInCU: 0x13A31, offset: 0x1685A, size: 0x8, addend: 0x0, symName: __ZNKSt3__117__compressed_pairIPP9RectangleNS_9allocatorIS2_EEE6secondB7v160006Ev, symObjAddr: 0x1A14, symBinAddr: 0x100005DF4, symSize: 0x24 }
  - { offsetInCU: 0x13A56, offset: 0x1687F, size: 0x8, addend: 0x0, symName: __ZNKSt3__122__compressed_pair_elemINS_9allocatorIP9RectangleEELi1ELb1EE5__getB7v160006Ev, symObjAddr: 0x1A38, symBinAddr: 0x100005E18, symSize: 0x14 }
  - { offsetInCU: 0x13A7B, offset: 0x168A4, size: 0x8, addend: 0x0, symName: __ZNSt3__123__libcpp_numeric_limitsIlLb1EE3maxB7v160006Ev, symObjAddr: 0x1A4C, symBinAddr: 0x100005E2C, symSize: 0x8 }
  - { offsetInCU: 0x13A8F, offset: 0x168B8, size: 0x8, addend: 0x0, symName: __ZNSt12length_errorC1B7v160006EPKc, symObjAddr: 0x1AB8, symBinAddr: 0x100005E98, symSize: 0x34 }
  - { offsetInCU: 0x13AC6, offset: 0x168EF, size: 0x8, addend: 0x0, symName: __ZNSt12length_errorC2B7v160006EPKc, symObjAddr: 0x1AEC, symBinAddr: 0x100005ECC, symSize: 0x4C }
  - { offsetInCU: 0x13AFD, offset: 0x16926, size: 0x8, addend: 0x0, symName: __ZNSt3__114__split_bufferIP9RectangleRNS_9allocatorIS2_EEEC2EmmS5_, symObjAddr: 0x1B8C, symBinAddr: 0x100005F6C, symSize: 0xD4 }
  - { offsetInCU: 0x13B6F, offset: 0x16998, size: 0x8, addend: 0x0, symName: __ZNSt3__117__compressed_pairIPP9RectangleRNS_9allocatorIS2_EEEC1B7v160006IDnS6_EEOT_OT0_, symObjAddr: 0x1C60, symBinAddr: 0x100006040, symSize: 0x3C }
  - { offsetInCU: 0x13BC6, offset: 0x169EF, size: 0x8, addend: 0x0, symName: __ZNSt3__114__split_bufferIP9RectangleRNS_9allocatorIS2_EEE7__allocB7v160006Ev, symObjAddr: 0x1CDC, symBinAddr: 0x1000060BC, symSize: 0x28 }
  - { offsetInCU: 0x13BEB, offset: 0x16A14, size: 0x8, addend: 0x0, symName: __ZNSt3__114__split_bufferIP9RectangleRNS_9allocatorIS2_EEE9__end_capB7v160006Ev, symObjAddr: 0x1D04, symBinAddr: 0x1000060E4, symSize: 0x28 }
  - { offsetInCU: 0x13C10, offset: 0x16A39, size: 0x8, addend: 0x0, symName: __ZNSt3__117__compressed_pairIPP9RectangleRNS_9allocatorIS2_EEEC2B7v160006IDnS6_EEOT_OT0_, symObjAddr: 0x1D2C, symBinAddr: 0x10000610C, symSize: 0x48 }
  - { offsetInCU: 0x13C67, offset: 0x16A90, size: 0x8, addend: 0x0, symName: __ZNSt3__122__compressed_pair_elemIRNS_9allocatorIP9RectangleEELi1ELb0EEC2B7v160006IS5_vEEOT_, symObjAddr: 0x1D74, symBinAddr: 0x100006154, symSize: 0x20 }
  - { offsetInCU: 0x13CA8, offset: 0x16AD1, size: 0x8, addend: 0x0, symName: __ZNSt3__19allocatorIP9RectangleE8allocateB7v160006Em, symObjAddr: 0x1D94, symBinAddr: 0x100006174, symSize: 0x58 }
  - { offsetInCU: 0x13CDB, offset: 0x16B04, size: 0x8, addend: 0x0, symName: __ZNSt3__117__compressed_pairIPP9RectangleRNS_9allocatorIS2_EEE6secondB7v160006Ev, symObjAddr: 0x1ED0, symBinAddr: 0x1000062B0, symSize: 0x28 }
  - { offsetInCU: 0x13D00, offset: 0x16B29, size: 0x8, addend: 0x0, symName: __ZNSt3__122__compressed_pair_elemIRNS_9allocatorIP9RectangleEELi1ELb0EE5__getB7v160006Ev, symObjAddr: 0x1EF8, symBinAddr: 0x1000062D8, symSize: 0x18 }
  - { offsetInCU: 0x13D25, offset: 0x16B4E, size: 0x8, addend: 0x0, symName: __ZNSt3__117__compressed_pairIPP9RectangleRNS_9allocatorIS2_EEE5firstB7v160006Ev, symObjAddr: 0x1F10, symBinAddr: 0x1000062F0, symSize: 0x24 }
  - { offsetInCU: 0x13D4A, offset: 0x16B73, size: 0x8, addend: 0x0, symName: __ZNSt3__116reverse_iteratorIPP9RectangleEC1B7v160006ES3_, symObjAddr: 0x1FAC, symBinAddr: 0x10000638C, symSize: 0x34 }
  - { offsetInCU: 0x13D81, offset: 0x16BAA, size: 0x8, addend: 0x0, symName: __ZNKSt3__116reverse_iteratorIPP9RectangleE4baseB7v160006Ev, symObjAddr: 0x1FE0, symBinAddr: 0x1000063C0, symSize: 0x18 }
  - { offsetInCU: 0x13DA6, offset: 0x16BCF, size: 0x8, addend: 0x0, symName: __ZNKSt3__16vectorIP9RectangleNS_9allocatorIS2_EEE14__annotate_newB7v160006Em, symObjAddr: 0x2034, symBinAddr: 0x100006414, symSize: 0xAC }
  - { offsetInCU: 0x13E00, offset: 0x16C29, size: 0x8, addend: 0x0, symName: __ZNKSt3__111__move_loopINS_17_ClassicAlgPolicyEEclB7v160006INS_16reverse_iteratorIPP9RectangleEES8_S8_EENS_4pairIT_T1_EESA_T0_SB_, symObjAddr: 0x23E0, symBinAddr: 0x1000067C0, symSize: 0xA0 }
  - { offsetInCU: 0x13E6A, offset: 0x16C93, size: 0x8, addend: 0x0, symName: __ZNSt3__18_IterOpsINS_17_ClassicAlgPolicyEE11__iter_moveB7v160006IRNS_16reverse_iteratorIPP9RectangleEEEENS_9enable_ifIXsr12is_referenceIDTdeclsr3stdE7declvalIRT_EEEEE5valueEDTclsr3stdE4movedeclsr3stdE7declvalISC_EEEEE4typeEOSB_, symObjAddr: 0x2614, symBinAddr: 0x1000069F4, symSize: 0x28 }
  - { offsetInCU: 0x13E96, offset: 0x16CBF, size: 0x8, addend: 0x0, symName: __ZNKSt3__116reverse_iteratorIPP9RectangleEdeB7v160006Ev, symObjAddr: 0x263C, symBinAddr: 0x100006A1C, symSize: 0x28 }
  - { offsetInCU: 0x13ECA, offset: 0x16CF3, size: 0x8, addend: 0x0, symName: __ZNSt3__116reverse_iteratorIPP9RectangleEppB7v160006Ev, symObjAddr: 0x2664, symBinAddr: 0x100006A44, symSize: 0x20 }
  - { offsetInCU: 0x13EEF, offset: 0x16D18, size: 0x8, addend: 0x0, symName: __ZNSt3__18_IterOpsINS_17_ClassicAlgPolicyEE25__validate_iter_referenceB7v160006IRNS_16reverse_iteratorIPP9RectangleEEEEvv, symObjAddr: 0x2684, symBinAddr: 0x100006A64, symSize: 0x4 }
  - { offsetInCU: 0x13F0D, offset: 0x16D36, size: 0x8, addend: 0x0, symName: __ZNSt3__118__unwrap_iter_implINS_16reverse_iteratorIPP9RectangleEELb0EE8__unwrapB7v160006ES5_, symObjAddr: 0x2688, symBinAddr: 0x100006A68, symSize: 0x24 }
  - { offsetInCU: 0x13F36, offset: 0x16D5F, size: 0x8, addend: 0x0, symName: __ZNSt3__14pairINS_16reverse_iteratorIPP9RectangleEES5_EC1B7v160006IS5_S5_LPv0EEEOT_OT0_, symObjAddr: 0x26AC, symBinAddr: 0x100006A8C, symSize: 0x3C }
  - { offsetInCU: 0x13F94, offset: 0x16DBD, size: 0x8, addend: 0x0, symName: __ZNSt3__14pairINS_16reverse_iteratorIPP9RectangleEES5_EC2B7v160006IS5_S5_LPv0EEEOT_OT0_, symObjAddr: 0x26E8, symBinAddr: 0x100006AC8, symSize: 0x34 }
  - { offsetInCU: 0x13FF2, offset: 0x16E1B, size: 0x8, addend: 0x0, symName: __ZNSt3__118__unwrap_iter_implINS_16reverse_iteratorIPP9RectangleEELb0EE8__rewrapB7v160006ES5_S5_, symObjAddr: 0x271C, symBinAddr: 0x100006AFC, symSize: 0x2C }
  - { offsetInCU: 0x14020, offset: 0x16E49, size: 0x8, addend: 0x0, symName: __ZNSt3__116reverse_iteratorIPP9RectangleEC2B7v160006ES3_, symObjAddr: 0x2748, symBinAddr: 0x100006B28, symSize: 0x28 }
  - { offsetInCU: 0x14057, offset: 0x16E80, size: 0x8, addend: 0x0, symName: __ZNSt3__114__split_bufferIP9RectangleRNS_9allocatorIS2_EEED2Ev, symObjAddr: 0x2770, symBinAddr: 0x100006B50, symSize: 0x8C }
  - { offsetInCU: 0x14082, offset: 0x16EAB, size: 0x8, addend: 0x0, symName: __ZNSt3__114__split_bufferIP9RectangleRNS_9allocatorIS2_EEE5clearB7v160006Ev, symObjAddr: 0x27FC, symBinAddr: 0x100006BDC, symSize: 0x28 }
  - { offsetInCU: 0x140A7, offset: 0x16ED0, size: 0x8, addend: 0x0, symName: __ZNKSt3__114__split_bufferIP9RectangleRNS_9allocatorIS2_EEE8capacityB7v160006Ev, symObjAddr: 0x2824, symBinAddr: 0x100006C04, symSize: 0x40 }
  - { offsetInCU: 0x140CC, offset: 0x16EF5, size: 0x8, addend: 0x0, symName: __ZNSt3__114__split_bufferIP9RectangleRNS_9allocatorIS2_EEE17__destruct_at_endB7v160006EPS2_, symObjAddr: 0x2864, symBinAddr: 0x100006C44, symSize: 0x2C }
  - { offsetInCU: 0x140FF, offset: 0x16F28, size: 0x8, addend: 0x0, symName: __ZNSt3__114__split_bufferIP9RectangleRNS_9allocatorIS2_EEE17__destruct_at_endB7v160006EPS2_NS_17integral_constantIbLb0EEE, symObjAddr: 0x2890, symBinAddr: 0x100006C70, symSize: 0x80 }
  - { offsetInCU: 0x1413F, offset: 0x16F68, size: 0x8, addend: 0x0, symName: __ZNKSt3__114__split_bufferIP9RectangleRNS_9allocatorIS2_EEE9__end_capB7v160006Ev, symObjAddr: 0x2910, symBinAddr: 0x100006CF0, symSize: 0x28 }
  - { offsetInCU: 0x14164, offset: 0x16F8D, size: 0x8, addend: 0x0, symName: __ZNKSt3__117__compressed_pairIPP9RectangleRNS_9allocatorIS2_EEE5firstB7v160006Ev, symObjAddr: 0x2938, symBinAddr: 0x100006D18, symSize: 0x24 }
  - { offsetInCU: 0x14189, offset: 0x16FB2, size: 0x8, addend: 0x0, symName: __ZNSt3__16vectorIP9RectangleNS_9allocatorIS2_EEE11__make_iterB7v160006EPS2_, symObjAddr: 0x295C, symBinAddr: 0x100006D3C, symSize: 0x34 }
  - { offsetInCU: 0x141BD, offset: 0x16FE6, size: 0x8, addend: 0x0, symName: __ZNSt3__111__wrap_iterIPP9RectangleEC1B7v160006EPKvS3_, symObjAddr: 0x2990, symBinAddr: 0x100006D70, symSize: 0x3C }
  - { offsetInCU: 0x14202, offset: 0x1702B, size: 0x8, addend: 0x0, symName: __ZNSt3__111__wrap_iterIPP9RectangleEC2B7v160006EPKvS3_, symObjAddr: 0x29CC, symBinAddr: 0x100006DAC, symSize: 0x24 }
  - { offsetInCU: 0x14247, offset: 0x17070, size: 0x8, addend: 0x0, symName: __ZNSt3__111char_traitsIcE6lengthEPKc, symObjAddr: 0x2BDC, symBinAddr: 0x100006FBC, symSize: 0x34 }
  - { offsetInCU: 0x1428B, offset: 0x170B4, size: 0x8, addend: 0x0, symName: __ZNKSt3__113basic_ostreamIcNS_11char_traitsIcEEE6sentrycvbB7v160006Ev, symObjAddr: 0x2C10, symBinAddr: 0x100006FF0, symSize: 0x1C }
  - { offsetInCU: 0x142B0, offset: 0x170D9, size: 0x8, addend: 0x0, symName: __ZNSt3__119ostreambuf_iteratorIcNS_11char_traitsIcEEEC1B7v160006ERNS_13basic_ostreamIcS2_EE, symObjAddr: 0x2E6C, symBinAddr: 0x10000724C, symSize: 0x34 }
  - { offsetInCU: 0x142E7, offset: 0x17110, size: 0x8, addend: 0x0, symName: __ZNKSt3__18ios_base5flagsB7v160006Ev, symObjAddr: 0x2EA0, symBinAddr: 0x100007280, symSize: 0x18 }
  - { offsetInCU: 0x1430E, offset: 0x17137, size: 0x8, addend: 0x0, symName: __ZNKSt3__19basic_iosIcNS_11char_traitsIcEEE4fillB7v160006Ev, symObjAddr: 0x2EB8, symBinAddr: 0x100007298, symSize: 0x64 }
  - { offsetInCU: 0x14335, offset: 0x1715E, size: 0x8, addend: 0x0, symName: __ZNKSt3__119ostreambuf_iteratorIcNS_11char_traitsIcEEE6failedB7v160006Ev, symObjAddr: 0x2F1C, symBinAddr: 0x1000072FC, symSize: 0x24 }
  - { offsetInCU: 0x1435A, offset: 0x17183, size: 0x8, addend: 0x0, symName: __ZNSt3__19basic_iosIcNS_11char_traitsIcEEE8setstateB7v160006Ej, symObjAddr: 0x2F40, symBinAddr: 0x100007320, symSize: 0x2C }
  - { offsetInCU: 0x1438E, offset: 0x171B7, size: 0x8, addend: 0x0, symName: __ZNKSt3__18ios_base5widthB7v160006Ev, symObjAddr: 0x2F6C, symBinAddr: 0x10000734C, symSize: 0x18 }
  - { offsetInCU: 0x143B5, offset: 0x171DE, size: 0x8, addend: 0x0, symName: __ZNSt3__115basic_streambufIcNS_11char_traitsIcEEE5sputnB7v160006EPKcl, symObjAddr: 0x2F84, symBinAddr: 0x100007364, symSize: 0x3C }
  - { offsetInCU: 0x143F6, offset: 0x1721F, size: 0x8, addend: 0x0, symName: __ZNSt3__112basic_stringIcNS_11char_traitsIcEENS_9allocatorIcEEEC1B7v160006Emc, symObjAddr: 0x2FC0, symBinAddr: 0x1000073A0, symSize: 0x3C }
  - { offsetInCU: 0x1443D, offset: 0x17266, size: 0x8, addend: 0x0, symName: __ZNSt3__112basic_stringIcNS_11char_traitsIcEENS_9allocatorIcEEE4dataB7v160006Ev, symObjAddr: 0x2FFC, symBinAddr: 0x1000073DC, symSize: 0x28 }
  - { offsetInCU: 0x14462, offset: 0x1728B, size: 0x8, addend: 0x0, symName: __ZNSt3__18ios_base5widthB7v160006El, symObjAddr: 0x3024, symBinAddr: 0x100007404, symSize: 0x2C }
  - { offsetInCU: 0x144A7, offset: 0x172D0, size: 0x8, addend: 0x0, symName: __ZNSt3__112basic_stringIcNS_11char_traitsIcEENS_9allocatorIcEEEC2B7v160006Emc, symObjAddr: 0x3050, symBinAddr: 0x100007430, symSize: 0x54 }
  - { offsetInCU: 0x144EE, offset: 0x17317, size: 0x8, addend: 0x0, symName: __ZNSt3__117__compressed_pairINS_12basic_stringIcNS_11char_traitsIcEENS_9allocatorIcEEE5__repES5_EC1B7v160006INS_18__default_init_tagESA_EEOT_OT0_, symObjAddr: 0x30A4, symBinAddr: 0x100007484, symSize: 0x3C }
  - { offsetInCU: 0x14545, offset: 0x1736E, size: 0x8, addend: 0x0, symName: __ZNSt3__117__compressed_pairINS_12basic_stringIcNS_11char_traitsIcEENS_9allocatorIcEEE5__repES5_EC2B7v160006INS_18__default_init_tagESA_EEOT_OT0_, symObjAddr: 0x30F0, symBinAddr: 0x1000074D0, symSize: 0x3C }
  - { offsetInCU: 0x1459C, offset: 0x173C5, size: 0x8, addend: 0x0, symName: __ZNSt3__122__compressed_pair_elemINS_12basic_stringIcNS_11char_traitsIcEENS_9allocatorIcEEE5__repELi0ELb0EEC2B7v160006ENS_18__default_init_tagE, symObjAddr: 0x312C, symBinAddr: 0x10000750C, symSize: 0x14 }
  - { offsetInCU: 0x145D0, offset: 0x173F9, size: 0x8, addend: 0x0, symName: __ZNSt3__122__compressed_pair_elemINS_9allocatorIcEELi1ELb1EEC2B7v160006ENS_18__default_init_tagE, symObjAddr: 0x3140, symBinAddr: 0x100007520, symSize: 0x2C }
  - { offsetInCU: 0x14604, offset: 0x1742D, size: 0x8, addend: 0x0, symName: __ZNSt3__19allocatorIcEC2B7v160006Ev, symObjAddr: 0x316C, symBinAddr: 0x10000754C, symSize: 0x2C }
  - { offsetInCU: 0x1462D, offset: 0x17456, size: 0x8, addend: 0x0, symName: __ZNSt3__116__non_trivial_ifILb1ENS_9allocatorIcEEEC2B7v160006Ev, symObjAddr: 0x3198, symBinAddr: 0x100007578, symSize: 0x14 }
  - { offsetInCU: 0x14656, offset: 0x1747F, size: 0x8, addend: 0x0, symName: __ZNSt3__112basic_stringIcNS_11char_traitsIcEENS_9allocatorIcEEE13__get_pointerB7v160006Ev, symObjAddr: 0x31C0, symBinAddr: 0x1000075A0, symSize: 0x54 }
  - { offsetInCU: 0x1467B, offset: 0x174A4, size: 0x8, addend: 0x0, symName: __ZNKSt3__112basic_stringIcNS_11char_traitsIcEENS_9allocatorIcEEE9__is_longB7v160006Ev, symObjAddr: 0x3214, symBinAddr: 0x1000075F4, symSize: 0x38 }
  - { offsetInCU: 0x146A0, offset: 0x174C9, size: 0x8, addend: 0x0, symName: __ZNSt3__112basic_stringIcNS_11char_traitsIcEENS_9allocatorIcEEE18__get_long_pointerB7v160006Ev, symObjAddr: 0x324C, symBinAddr: 0x10000762C, symSize: 0x28 }
  - { offsetInCU: 0x146C5, offset: 0x174EE, size: 0x8, addend: 0x0, symName: __ZNSt3__112basic_stringIcNS_11char_traitsIcEENS_9allocatorIcEEE19__get_short_pointerB7v160006Ev, symObjAddr: 0x3274, symBinAddr: 0x100007654, symSize: 0x28 }
  - { offsetInCU: 0x146EA, offset: 0x17513, size: 0x8, addend: 0x0, symName: __ZNKSt3__117__compressed_pairINS_12basic_stringIcNS_11char_traitsIcEENS_9allocatorIcEEE5__repES5_E5firstB7v160006Ev, symObjAddr: 0x329C, symBinAddr: 0x10000767C, symSize: 0x24 }
  - { offsetInCU: 0x1470F, offset: 0x17538, size: 0x8, addend: 0x0, symName: __ZNKSt3__122__compressed_pair_elemINS_12basic_stringIcNS_11char_traitsIcEENS_9allocatorIcEEE5__repELi0ELb0EE5__getB7v160006Ev, symObjAddr: 0x32C0, symBinAddr: 0x1000076A0, symSize: 0x14 }
  - { offsetInCU: 0x14734, offset: 0x1755D, size: 0x8, addend: 0x0, symName: __ZNSt3__117__compressed_pairINS_12basic_stringIcNS_11char_traitsIcEENS_9allocatorIcEEE5__repES5_E5firstB7v160006Ev, symObjAddr: 0x32D4, symBinAddr: 0x1000076B4, symSize: 0x24 }
  - { offsetInCU: 0x14759, offset: 0x17582, size: 0x8, addend: 0x0, symName: __ZNSt3__122__compressed_pair_elemINS_12basic_stringIcNS_11char_traitsIcEENS_9allocatorIcEEE5__repELi0ELb0EE5__getB7v160006Ev, symObjAddr: 0x32F8, symBinAddr: 0x1000076D8, symSize: 0x14 }
  - { offsetInCU: 0x1477E, offset: 0x175A7, size: 0x8, addend: 0x0, symName: __ZNSt3__114pointer_traitsIPcE10pointer_toB7v160006ERc, symObjAddr: 0x330C, symBinAddr: 0x1000076EC, symSize: 0x14 }
  - { offsetInCU: 0x147A1, offset: 0x175CA, size: 0x8, addend: 0x0, symName: __ZNSt3__119ostreambuf_iteratorIcNS_11char_traitsIcEEEC2B7v160006ERNS_13basic_ostreamIcS2_EE, symObjAddr: 0x3320, symBinAddr: 0x100007700, symSize: 0x54 }
  - { offsetInCU: 0x147D8, offset: 0x17601, size: 0x8, addend: 0x0, symName: __ZNKSt3__19basic_iosIcNS_11char_traitsIcEEE5rdbufB7v160006Ev, symObjAddr: 0x3374, symBinAddr: 0x100007754, symSize: 0x24 }
  - { offsetInCU: 0x147FF, offset: 0x17628, size: 0x8, addend: 0x0, symName: __ZNKSt3__18ios_base5rdbufB7v160006Ev, symObjAddr: 0x3398, symBinAddr: 0x100007778, symSize: 0x18 }
  - { offsetInCU: 0x14824, offset: 0x1764D, size: 0x8, addend: 0x0, symName: __ZNSt3__111char_traitsIcE11eq_int_typeEii, symObjAddr: 0x33B0, symBinAddr: 0x100007790, symSize: 0x28 }
  - { offsetInCU: 0x14855, offset: 0x1767E, size: 0x8, addend: 0x0, symName: __ZNKSt3__19basic_iosIcNS_11char_traitsIcEEE5widenB7v160006Ec, symObjAddr: 0x33D8, symBinAddr: 0x1000077B8, symSize: 0x84 }
  - { offsetInCU: 0x148C2, offset: 0x176EB, size: 0x8, addend: 0x0, symName: __ZNKSt3__15ctypeIcE5widenB7v160006Ec, symObjAddr: 0x3488, symBinAddr: 0x100007868, symSize: 0x38 }
  - { offsetInCU: 0x148F6, offset: 0x1771F, size: 0x8, addend: 0x0, symName: __ZNSt3__18ios_base8setstateB7v160006Ej, symObjAddr: 0x34C0, symBinAddr: 0x1000078A0, symSize: 0x34 }
...
